; Function Attrs: nounwind uwtable
define dso_local i32 @commit_graft_pos(ptr noundef readonly captures(none) %0, ptr noundef %1) local_unnamed_addr #0 {
  %3 = getelementptr inbounds nuw i8, ptr %0, i64 24
  %4 = load ptr, ptr %3, align 8, !tbaa !12
  %5 = getelementptr inbounds nuw i8, ptr %4, i64 64
  %6 = load ptr, ptr %5, align 8, !tbaa !32
  %7 = getelementptr inbounds nuw i8, ptr %4, i64 76
  %8 = load i32, ptr %7, align 4, !tbaa !39
  %9 = sext i32 %8 to i64
  %10 = tail call i32 @oid_pos(ptr noundef %1, ptr noundef %6, i64 noundef %9, ptr noundef nonnull @commit_graft_oid_access) #24
  ret i32 %10
}